target datalayout = "e-m:e-p270:32:32-p271:32:32-p272:64:64-i64:64-i128:128-f80:128-n8:16:32:64-S128"
target triple = "x86_64-pc-linux-gnu"

%"class.gmx::SelectionTreeElement" = type { i32, %struct.gmx_ana_selvalue_t, ptr, i32, %union.anon.0, ptr, ptr, %"class.std::shared_ptr", %"class.std::shared_ptr", %"class.std::__cxx11::basic_string", %"struct.gmx::SelectionLocation" }
%struct.gmx_ana_selvalue_t = type { i32, i32, %union.anon, i32 }
%union.anon = type { ptr }
%union.anon.0 = type { %struct.anon }
%struct.anon = type { ptr, ptr, ptr, ptr }
%"class.std::shared_ptr" = type { %"class.std::__shared_ptr" }
%"class.std::__shared_ptr" = type { ptr, %"class.std::__shared_count" }
%"class.std::__shared_count" = type { ptr }
%"class.std::__cxx11::basic_string" = type { %"struct.std::__cxx11::basic_string<char>::_Alloc_hider", i64, %union.anon.2 }
%"struct.std::__cxx11::basic_string<char>::_Alloc_hider" = type { ptr }
%union.anon.2 = type { i64, [8 x i8] }
%"struct.gmx::SelectionLocation" = type { i32, i32 }
%struct.t_compiler_data = type { ptr, i32, i32, ptr, ptr }

@.str = private unnamed_addr constant [16 x i8] c"%*c cdata: flg=\00", align 1
@.str.1 = private unnamed_addr constant [2 x i8] c"F\00", align 1
@.str.2 = private unnamed_addr constant [2 x i8] c"D\00", align 1
@.str.3 = private unnamed_addr constant [2 x i8] c"S\00", align 1
@.str.4 = private unnamed_addr constant [2 x i8] c"M\00", align 1
@.str.5 = private unnamed_addr constant [2 x i8] c"A\00", align 1
@.str.6 = private unnamed_addr constant [3 x i8] c"Ss\00", align 1
@.str.7 = private unnamed_addr constant [3 x i8] c"Sm\00", align 1
@.str.8 = private unnamed_addr constant [3 x i8] c"Sc\00", align 1
@.str.9 = private unnamed_addr constant [2 x i8] c"0\00", align 1
@.str.10 = private unnamed_addr constant [9 x i8] c" refc=%d\00", align 1
@.str.11 = private unnamed_addr constant [7 x i8] c" eval=\00", align 1
@.str.12 = private unnamed_addr constant [5 x i8] c"gmin\00", align 1
@.str.13 = private unnamed_addr constant [5 x i8] c"gmax\00", align 1
@.str.14 = private unnamed_addr constant [2 x i8] c"\0A\00", align 1

; Function Attrs: mustprogress uwtable
define void @_Z32_gmx_selelem_print_compiler_infoP8_IO_FILERKN3gmx20SelectionTreeElementEi(ptr noundef %0, ptr noundef nonnull align 8 dereferenceable(168) %1, i32 noundef %2) #0 {
  %4 = alloca ptr, align 8
  %5 = alloca ptr, align 8
  %6 = alloca i32, align 4
  store ptr %0, ptr %4, align 8
  store ptr %1, ptr %5, align 8
  store i32 %2, ptr %6, align 4
  %7 = load ptr, ptr %5, align 8
  %8 = getelementptr inbounds %"class.gmx::SelectionTreeElement", ptr %7, i32 0, i32 6
  %9 = load ptr, ptr %8, align 8
  %10 = icmp ne ptr %9, null
  br i1 %10, label %12, label %11

11:                                               ; preds = %3
  br label %155

12:                                               ; preds = %3
  %13 = load ptr, ptr %4, align 8
  %14 = load i32, ptr %6, align 4
  %15 = mul nsw i32 %14, 2
  %16 = add nsw i32 %15, 1
  %17 = call i32 (ptr, ptr, ...) @fprintf(ptr noundef %13, ptr noundef @.str, i32 noundef %16, i32 noundef 32) #11
  %18 = load ptr, ptr %5, align 8
  %19 = getelementptr inbounds %"class.gmx::SelectionTreeElement", ptr %18, i32 0, i32 6
  %20 = load ptr, ptr %19, align 8
  %21 = getelementptr inbounds %struct.t_compiler_data, ptr %20, i32 0, i32 2
  %22 = load i32, ptr %21, align 4
  %23 = and i32 %22, 1
  %24 = icmp ne i32 %23, 0
  br i1 %24, label %25, label %28

25:                                               ; preds = %12
  %26 = load ptr, ptr %4, align 8
  %27 = call i32 (ptr, ptr, ...) @fprintf(ptr noundef %26, ptr noundef @.str.1) #11
  br label %28

28:                                               ; preds = %25, %12
  %29 = load ptr, ptr %5, align 8
  %30 = getelementptr inbounds %"class.gmx::SelectionTreeElement", ptr %29, i32 0, i32 6
  %31 = load ptr, ptr %30, align 8
  %32 = getelementptr inbounds %struct.t_compiler_data, ptr %31, i32 0, i32 2
  %33 = load i32, ptr %32, align 4
  %34 = and i32 %33, 2
  %35 = icmp ne i32 %34, 0
  br i1 %35, label %39, label %36

36:                                               ; preds = %28
  %37 = load ptr, ptr %4, align 8
  %38 = call i32 (ptr, ptr, ...) @fprintf(ptr noundef %37, ptr noundef @.str.2) #11
  br label %39

39:                                               ; preds = %36, %28
  %40 = load ptr, ptr %5, align 8
  %41 = getelementptr inbounds %"class.gmx::SelectionTreeElement", ptr %40, i32 0, i32 6
  %42 = load ptr, ptr %41, align 8
  %43 = getelementptr inbounds %struct.t_compiler_data, ptr %42, i32 0, i32 2
  %44 = load i32, ptr %43, align 4
  %45 = and i32 %44, 4
  %46 = icmp ne i32 %45, 0
  br i1 %46, label %47, label %50

47:                                               ; preds = %39
  %48 = load ptr, ptr %4, align 8
  %49 = call i32 (ptr, ptr, ...) @fprintf(ptr noundef %48, ptr noundef @.str.3) #11
  br label %50

50:                                               ; preds = %47, %39
  %51 = load ptr, ptr %5, align 8
  %52 = getelementptr inbounds %"class.gmx::SelectionTreeElement", ptr %51, i32 0, i32 6
  %53 = load ptr, ptr %52, align 8
  %54 = getelementptr inbounds %struct.t_compiler_data, ptr %53, i32 0, i32 2
  %55 = load i32, ptr %54, align 4
  %56 = and i32 %55, 8
  %57 = icmp ne i32 %56, 0
  br i1 %57, label %58, label %61

58:                                               ; preds = %50
  %59 = load ptr, ptr %4, align 8
  %60 = call i32 (ptr, ptr, ...) @fprintf(ptr noundef %59, ptr noundef @.str.4) #11
  br label %61

61:                                               ; preds = %58, %50
  %62 = load ptr, ptr %5, align 8
  %63 = getelementptr inbounds %"class.gmx::SelectionTreeElement", ptr %62, i32 0, i32 6
  %64 = load ptr, ptr %63, align 8
  %65 = getelementptr inbounds %struct.t_compiler_data, ptr %64, i32 0, i32 2
  %66 = load i32, ptr %65, align 4
  %67 = and i32 %66, 16
  %68 = icmp ne i32 %67, 0
  br i1 %68, label %69, label %72

69:                                               ; preds = %61
  %70 = load ptr, ptr %4, align 8
  %71 = call i32 (ptr, ptr, ...) @fprintf(ptr noundef %70, ptr noundef @.str.5) #11
  br label %72

72:                                               ; preds = %69, %61
  %73 = load ptr, ptr %5, align 8
  %74 = getelementptr inbounds %"class.gmx::SelectionTreeElement", ptr %73, i32 0, i32 6
  %75 = load ptr, ptr %74, align 8
  %76 = getelementptr inbounds %struct.t_compiler_data, ptr %75, i32 0, i32 2
  %77 = load i32, ptr %76, align 4
  %78 = and i32 %77, 32
  %79 = icmp ne i32 %78, 0
  br i1 %79, label %80, label %83

80:                                               ; preds = %72
  %81 = load ptr, ptr %4, align 8
  %82 = call i32 (ptr, ptr, ...) @fprintf(ptr noundef %81, ptr noundef @.str.6) #11
  br label %83

83:                                               ; preds = %80, %72
  %84 = load ptr, ptr %5, align 8
  %85 = getelementptr inbounds %"class.gmx::SelectionTreeElement", ptr %84, i32 0, i32 6
  %86 = load ptr, ptr %85, align 8
  %87 = getelementptr inbounds %struct.t_compiler_data, ptr %86, i32 0, i32 2
  %88 = load i32, ptr %87, align 4
  %89 = and i32 %88, 64
  %90 = icmp ne i32 %89, 0
  br i1 %90, label %91, label %94

91:                                               ; preds = %83
  %92 = load ptr, ptr %4, align 8
  %93 = call i32 (ptr, ptr, ...) @fprintf(ptr noundef %92, ptr noundef @.str.7) #11
  br label %94

94:                                               ; preds = %91, %83
  %95 = load ptr, ptr %5, align 8
  %96 = getelementptr inbounds %"class.gmx::SelectionTreeElement", ptr %95, i32 0, i32 6
  %97 = load ptr, ptr %96, align 8
  %98 = getelementptr inbounds %struct.t_compiler_data, ptr %97, i32 0, i32 2
  %99 = load i32, ptr %98, align 4
  %100 = and i32 %99, 128
  %101 = icmp ne i32 %100, 0
  br i1 %101, label %102, label %105

102:                                              ; preds = %94
  %103 = load ptr, ptr %4, align 8
  %104 = call i32 (ptr, ptr, ...) @fprintf(ptr noundef %103, ptr noundef @.str.8) #11
  br label %105

105:                                              ; preds = %102, %94
  %106 = load ptr, ptr %5, align 8
  %107 = getelementptr inbounds %"class.gmx::SelectionTreeElement", ptr %106, i32 0, i32 6
  %108 = load ptr, ptr %107, align 8
  %109 = getelementptr inbounds %struct.t_compiler_data, ptr %108, i32 0, i32 2
  %110 = load i32, ptr %109, align 4
  %111 = icmp ne i32 %110, 0
  br i1 %111, label %115, label %112

112:                                              ; preds = %105
  %113 = load ptr, ptr %4, align 8
  %114 = call i32 (ptr, ptr, ...) @fprintf(ptr noundef %113, ptr noundef @.str.9) #11
  br label %115

115:                                              ; preds = %112, %105
  %116 = load ptr, ptr %5, align 8
  %117 = getelementptr inbounds %"class.gmx::SelectionTreeElement", ptr %116, i32 0, i32 6
  %118 = load ptr, ptr %117, align 8
  %119 = getelementptr inbounds %struct.t_compiler_data, ptr %118, i32 0, i32 1
  %120 = load i32, ptr %119, align 8
  %121 = icmp sgt i32 %120, 0
  br i1 %121, label %122, label %130

122:                                              ; preds = %115
  %123 = load ptr, ptr %4, align 8
  %124 = load ptr, ptr %5, align 8
  %125 = getelementptr inbounds %"class.gmx::SelectionTreeElement", ptr %124, i32 0, i32 6
  %126 = load ptr, ptr %125, align 8
  %127 = getelementptr inbounds %struct.t_compiler_data, ptr %126, i32 0, i32 1
  %128 = load i32, ptr %127, align 8
  %129 = call i32 (ptr, ptr, ...) @fprintf(ptr noundef %123, ptr noundef @.str.10, i32 noundef %128) #11
  br label %130

130:                                              ; preds = %122, %115
  %131 = load ptr, ptr %4, align 8
  %132 = call i32 (ptr, ptr, ...) @fprintf(ptr noundef %131, ptr noundef @.str.11) #11
  %133 = load ptr, ptr %4, align 8
  %134 = load ptr, ptr %5, align 8
  %135 = getelementptr inbounds %"class.gmx::SelectionTreeElement", ptr %134, i32 0, i32 6
  %136 = load ptr, ptr %135, align 8
  %137 = getelementptr inbounds %struct.t_compiler_data, ptr %136, i32 0, i32 0
  %138 = load ptr, ptr %137, align 8
  call void @_Z28_gmx_sel_print_evalfunc_nameP8_IO_FILEPFvP18gmx_sel_evaluate_tRKSt10shared_ptrIN3gmx20SelectionTreeElementEEP15gmx_ana_index_tE(ptr noundef %133, ptr noundef %138)
  %139 = load ptr, ptr %4, align 8
  %140 = load ptr, ptr %5, align 8
  %141 = load ptr, ptr %5, align 8
  %142 = getelementptr inbounds %"class.gmx::SelectionTreeElement", ptr %141, i32 0, i32 6
  %143 = load ptr, ptr %142, align 8
  %144 = getelementptr inbounds %struct.t_compiler_data, ptr %143, i32 0, i32 3
  %145 = load ptr, ptr %144, align 8
  call void @_ZL16print_group_infoP8_IO_FILEPKcRKN3gmx20SelectionTreeElementEP15gmx_ana_index_t(ptr noundef %139, ptr noundef @.str.12, ptr noundef nonnull align 8 dereferenceable(168) %140, ptr noundef %145)
  %146 = load ptr, ptr %4, align 8
  %147 = load ptr, ptr %5, align 8
  %148 = load ptr, ptr %5, align 8
  %149 = getelementptr inbounds %"class.gmx::SelectionTreeElement", ptr %148, i32 0, i32 6
  %150 = load ptr, ptr %149, align 8
  %151 = getelementptr inbounds %struct.t_compiler_data, ptr %150, i32 0, i32 4
  %152 = load ptr, ptr %151, align 8
  call void @_ZL16print_group_infoP8_IO_FILEPKcRKN3gmx20SelectionTreeElementEP15gmx_ana_index_t(ptr noundef %146, ptr noundef @.str.13, ptr noundef nonnull align 8 dereferenceable(168) %147, ptr noundef %152)
  %153 = load ptr, ptr %4, align 8
  %154 = call i32 (ptr, ptr, ...) @fprintf(ptr noundef %153, ptr noundef @.str.14) #11
  br label %155

155:                                              ; preds = %130, %11
  ret void
}