; Function Attrs: mustprogress uwtable
define void @_Z32_gmx_selelem_print_compiler_infoP8_IO_FILERKN3gmx20SelectionTreeElementEi(ptr noundef %0, ptr nocapture noundef nonnull readonly align 8 dereferenceable(168) %1, i32 noundef %2) local_unnamed_addr #0 {
  %4 = getelementptr inbounds i8, ptr %1, i64 88
  %5 = load ptr, ptr %4, align 8
  %.not = icmp eq ptr %5, null
  br i1 %.not, label %74, label %6

6:                                                ; preds = %3
  %7 = shl nsw i32 %2, 1
  %8 = or disjoint i32 %7, 1
  %9 = tail call i32 (ptr, ptr, ...) @fprintf(ptr noundef %0, ptr noundef nonnull @.str, i32 noundef %8, i32 noundef 32) #17
  %10 = load ptr, ptr %4, align 8
  %11 = getelementptr inbounds i8, ptr %10, i64 12
  %12 = load i32, ptr %11, align 4
  %13 = and i32 %12, 1
  %.not33 = icmp eq i32 %13, 0
  br i1 %.not33, label %15, label %14

14:                                               ; preds = %6
  %fputc = tail call i32 @fputc(i32 70, ptr %0)
  %.pre = load ptr, ptr %4, align 8
  %.phi.trans.insert = getelementptr inbounds i8, ptr %.pre, i64 12
  %.pre48 = load i32, ptr %.phi.trans.insert, align 4
  br label %15

15:                                               ; preds = %14, %6
  %16 = phi i32 [ %.pre48, %14 ], [ %12, %6 ]
  %17 = phi ptr [ %.pre, %14 ], [ %10, %6 ]
  %18 = and i32 %16, 2
  %.not34 = icmp eq i32 %18, 0
  br i1 %.not34, label %19, label %20

19:                                               ; preds = %15
  %fputc35 = tail call i32 @fputc(i32 68, ptr %0)
  %.pre49 = load ptr, ptr %4, align 8
  %.phi.trans.insert50 = getelementptr inbounds i8, ptr %.pre49, i64 12
  %.pre51 = load i32, ptr %.phi.trans.insert50, align 4
  br label %20

20:                                               ; preds = %19, %15
  %21 = phi i32 [ %.pre51, %19 ], [ %16, %15 ]
  %22 = phi ptr [ %.pre49, %19 ], [ %17, %15 ]
  %23 = and i32 %21, 4
  %.not36 = icmp eq i32 %23, 0
  br i1 %.not36, label %25, label %24

24:                                               ; preds = %20
  %fputc37 = tail call i32 @fputc(i32 83, ptr %0)
  %.pre52 = load ptr, ptr %4, align 8
  %.phi.trans.insert53 = getelementptr inbounds i8, ptr %.pre52, i64 12
  %.pre54 = load i32, ptr %.phi.trans.insert53, align 4
  br label %25

25:                                               ; preds = %24, %20
  %26 = phi i32 [ %.pre54, %24 ], [ %21, %20 ]
  %27 = phi ptr [ %.pre52, %24 ], [ %22, %20 ]
  %28 = and i32 %26, 8
  %.not38 = icmp eq i32 %28, 0
  br i1 %.not38, label %30, label %29

29:                                               ; preds = %25
  %fputc39 = tail call i32 @fputc(i32 77, ptr %0)
  %.pre55 = load ptr, ptr %4, align 8
  %.phi.trans.insert56 = getelementptr inbounds i8, ptr %.pre55, i64 12
  %.pre57 = load i32, ptr %.phi.trans.insert56, align 4
  br label %30

30:                                               ; preds = %29, %25
  %31 = phi i32 [ %.pre57, %29 ], [ %26, %25 ]
  %32 = phi ptr [ %.pre55, %29 ], [ %27, %25 ]
  %33 = and i32 %31, 16
  %.not40 = icmp eq i32 %33, 0
  br i1 %.not40, label %35, label %34

34:                                               ; preds = %30
  %fputc41 = tail call i32 @fputc(i32 65, ptr %0)
  %.pre58 = load ptr, ptr %4, align 8
  %.phi.trans.insert59 = getelementptr inbounds i8, ptr %.pre58, i64 12
  %.pre60 = load i32, ptr %.phi.trans.insert59, align 4
  br label %35

35:                                               ; preds = %34, %30
  %36 = phi i32 [ %.pre60, %34 ], [ %31, %30 ]
  %37 = phi ptr [ %.pre58, %34 ], [ %32, %30 ]
  %38 = and i32 %36, 32
  %.not42 = icmp eq i32 %38, 0
  br i1 %.not42, label %41, label %39

39:                                               ; preds = %35
  %40 = tail call i64 @fwrite(ptr nonnull @.str.6, i64 2, i64 1, ptr %0)
  %.pre61 = load ptr, ptr %4, align 8
  %.phi.trans.insert62 = getelementptr inbounds i8, ptr %.pre61, i64 12
  %.pre63 = load i32, ptr %.phi.trans.insert62, align 4
  br label %41

41:                                               ; preds = %39, %35
  %42 = phi i32 [ %.pre63, %39 ], [ %36, %35 ]
  %43 = phi ptr [ %.pre61, %39 ], [ %37, %35 ]
  %44 = and i32 %42, 64
  %.not43 = icmp eq i32 %44, 0
  br i1 %.not43, label %47, label %45

45:                                               ; preds = %41
  %46 = tail call i64 @fwrite(ptr nonnull @.str.7, i64 2, i64 1, ptr %0)
  %.pre64 = load ptr, ptr %4, align 8
  %.phi.trans.insert65 = getelementptr inbounds i8, ptr %.pre64, i64 12
  %.pre66 = load i32, ptr %.phi.trans.insert65, align 4
  br label %47

47:                                               ; preds = %45, %41
  %48 = phi i32 [ %.pre66, %45 ], [ %42, %41 ]
  %49 = phi ptr [ %.pre64, %45 ], [ %43, %41 ]
  %50 = and i32 %48, 128
  %.not44 = icmp eq i32 %50, 0
  br i1 %.not44, label %53, label %51

51:                                               ; preds = %47
  %52 = tail call i64 @fwrite(ptr nonnull @.str.8, i64 2, i64 1, ptr %0)
  %.pre67 = load ptr, ptr %4, align 8
  %.phi.trans.insert68 = getelementptr inbounds i8, ptr %.pre67, i64 12
  %.pre69 = load i32, ptr %.phi.trans.insert68, align 4
  br label %53

53:                                               ; preds = %51, %47
  %54 = phi i32 [ %.pre69, %51 ], [ %48, %47 ]
  %55 = phi ptr [ %.pre67, %51 ], [ %49, %47 ]
  %.not45 = icmp eq i32 %54, 0
  br i1 %.not45, label %56, label %57

56:                                               ; preds = %53
  %fputc46 = tail call i32 @fputc(i32 48, ptr %0)
  %.pre70 = load ptr, ptr %4, align 8
  br label %57

57:                                               ; preds = %56, %53
  %58 = phi ptr [ %.pre70, %56 ], [ %55, %53 ]
  %59 = getelementptr inbounds i8, ptr %58, i64 8
  %60 = load i32, ptr %59, align 8
  %61 = icmp sgt i32 %60, 0
  br i1 %61, label %62, label %64

62:                                               ; preds = %57
  %63 = tail call i32 (ptr, ptr, ...) @fprintf(ptr noundef %0, ptr noundef nonnull @.str.10, i32 noundef %60) #17
  br label %64

64:                                               ; preds = %62, %57
  %65 = tail call i64 @fwrite(ptr nonnull @.str.11, i64 6, i64 1, ptr %0)
  %66 = load ptr, ptr %4, align 8
  %67 = load ptr, ptr %66, align 8
  tail call void @_Z28_gmx_sel_print_evalfunc_nameP8_IO_FILEPFvP18gmx_sel_evaluate_tRKSt10shared_ptrIN3gmx20SelectionTreeElementEEP15gmx_ana_index_tE(ptr noundef %0, ptr noundef %67)
  %68 = load ptr, ptr %4, align 8
  %69 = getelementptr inbounds i8, ptr %68, i64 16
  %70 = load ptr, ptr %69, align 8
  tail call fastcc void @_ZL16print_group_infoP8_IO_FILEPKcRKN3gmx20SelectionTreeElementEP15gmx_ana_index_t(ptr noundef %0, ptr noundef nonnull @.str.12, ptr noundef nonnull align 8 dereferenceable(168) %1, ptr noundef %70)
  %71 = load ptr, ptr %4, align 8
  %72 = getelementptr inbounds i8, ptr %71, i64 24
  %73 = load ptr, ptr %72, align 8
  tail call fastcc void @_ZL16print_group_infoP8_IO_FILEPKcRKN3gmx20SelectionTreeElementEP15gmx_ana_index_t(ptr noundef %0, ptr noundef nonnull @.str.13, ptr noundef nonnull align 8 dereferenceable(168) %1, ptr noundef %73)
  %fputc47 = tail call i32 @fputc(i32 10, ptr %0)
  br label %74

74:                                               ; preds = %3, %64
  ret void
}